target datalayout = "e-m:e-p270:32:32-p271:32:32-p272:64:64-i64:64-i128:128-f80:128-n8:16:32:64-S128"
target triple = "x86_64-pc-linux-gnu"

%struct.opj_poc = type { i32, i32, i32, i32, i32, i32, i32, i32, i32, i32, [5 x i8], i32, i32, i32, i32, i32, i32, i32, i32, i32, i32, i32, i32, i32, i32, i32, i32, i32, i32, i32, i32, i32, i32, i32, i32, i32 }
%struct.opj_tcp = type { i32, i32, i32, i32, i32, [100 x float], i32, [32 x %struct.opj_poc], i32, ptr, ptr, ptr, i32, i32, [100 x float], ptr, i32, i32, ptr, i32, ptr, ptr, ptr, ptr, i32, i32, ptr, i32, i32, i8 }
%struct.opj_mct_data = type { i32, i32, i32, ptr, i32 }
%struct.opj_ppx_struct = type { ptr, i32 }

; Function Attrs: nounwind uwtable
define internal void @opj_j2k_tcp_data_destroy(ptr noundef %0) #0 {
  %2 = alloca ptr, align 8
  store ptr %0, ptr %2, align 8, !tbaa !103
  %3 = load ptr, ptr %2, align 8, !tbaa !103
  %4 = getelementptr inbounds nuw %struct.opj_tcp, ptr %3, i32 0, i32 18
  %5 = load ptr, ptr %4, align 8, !tbaa !260
  %6 = icmp ne ptr %5, null
  br i1 %6, label %7, label %15

7:                                                ; preds = %1
  %8 = load ptr, ptr %2, align 8, !tbaa !103
  %9 = getelementptr inbounds nuw %struct.opj_tcp, ptr %8, i32 0, i32 18
  %10 = load ptr, ptr %9, align 8, !tbaa !260
  call void @opj_free(ptr noundef %10)
  %11 = load ptr, ptr %2, align 8, !tbaa !103
  %12 = getelementptr inbounds nuw %struct.opj_tcp, ptr %11, i32 0, i32 18
  store ptr null, ptr %12, align 8, !tbaa !260
  %13 = load ptr, ptr %2, align 8, !tbaa !103
  %14 = getelementptr inbounds nuw %struct.opj_tcp, ptr %13, i32 0, i32 19
  store i32 0, ptr %14, align 8, !tbaa !295
  br label %15

15:                                               ; preds = %7, %1
  ret void
}

; Function Attrs: nounwind uwtable
define internal void @opj_j2k_tcp_destroy(ptr noundef %0) #0 {
  %2 = alloca ptr, align 8
  %3 = alloca i32, align 4
  %4 = alloca ptr, align 8
  %5 = alloca i32, align 4
  store ptr %0, ptr %2, align 8, !tbaa !103
  %6 = load ptr, ptr %2, align 8, !tbaa !103
  %7 = icmp eq ptr %6, null
  br i1 %7, label %8, label %9

8:                                                ; preds = %1
  br label %162

9:                                                ; preds = %1
  %10 = load ptr, ptr %2, align 8, !tbaa !103
  %11 = getelementptr inbounds nuw %struct.opj_tcp, ptr %10, i32 0, i32 9
  %12 = load ptr, ptr %11, align 8, !tbaa !214
  %13 = icmp ne ptr %12, null
  br i1 %13, label %14, label %52

14:                                               ; preds = %9
  call void @llvm.lifetime.start.p0(i64 4, ptr %3) #10
  store i32 0, ptr %3, align 4, !tbaa !3
  br label %15

15:                                               ; preds = %41, %14
  %16 = load i32, ptr %3, align 4, !tbaa !3
  %17 = load ptr, ptr %2, align 8, !tbaa !103
  %18 = getelementptr inbounds nuw %struct.opj_tcp, ptr %17, i32 0, i32 8
  %19 = load i32, ptr %18, align 8, !tbaa !215
  %20 = icmp ult i32 %16, %19
  br i1 %20, label %21, label %44

21:                                               ; preds = %15
  %22 = load ptr, ptr %2, align 8, !tbaa !103
  %23 = getelementptr inbounds nuw %struct.opj_tcp, ptr %22, i32 0, i32 9
  %24 = load ptr, ptr %23, align 8, !tbaa !214
  %25 = load i32, ptr %3, align 4, !tbaa !3
  %26 = zext i32 %25 to i64
  %27 = getelementptr inbounds nuw %struct.opj_ppx_struct, ptr %24, i64 %26
  %28 = getelementptr inbounds nuw %struct.opj_ppx_struct, ptr %27, i32 0, i32 0
  %29 = load ptr, ptr %28, align 8, !tbaa !216
  %30 = icmp ne ptr %29, null
  br i1 %30, label %31, label %40

31:                                               ; preds = %21
  %32 = load ptr, ptr %2, align 8, !tbaa !103
  %33 = getelementptr inbounds nuw %struct.opj_tcp, ptr %32, i32 0, i32 9
  %34 = load ptr, ptr %33, align 8, !tbaa !214
  %35 = load i32, ptr %3, align 4, !tbaa !3
  %36 = zext i32 %35 to i64
  %37 = getelementptr inbounds nuw %struct.opj_ppx_struct, ptr %34, i64 %36
  %38 = getelementptr inbounds nuw %struct.opj_ppx_struct, ptr %37, i32 0, i32 0
  %39 = load ptr, ptr %38, align 8, !tbaa !216
  call void @opj_free(ptr noundef %39)
  br label %40

40:                                               ; preds = %31, %21
  br label %41

41:                                               ; preds = %40
  %42 = load i32, ptr %3, align 4, !tbaa !3
  %43 = add i32 %42, 1
  store i32 %43, ptr %3, align 4, !tbaa !3
  br label %15, !llvm.loop !218

44:                                               ; preds = %15
  %45 = load ptr, ptr %2, align 8, !tbaa !103
  %46 = getelementptr inbounds nuw %struct.opj_tcp, ptr %45, i32 0, i32 8
  store i32 0, ptr %46, align 8, !tbaa !215
  %47 = load ptr, ptr %2, align 8, !tbaa !103
  %48 = getelementptr inbounds nuw %struct.opj_tcp, ptr %47, i32 0, i32 9
  %49 = load ptr, ptr %48, align 8, !tbaa !214
  call void @opj_free(ptr noundef %49)
  %50 = load ptr, ptr %2, align 8, !tbaa !103
  %51 = getelementptr inbounds nuw %struct.opj_tcp, ptr %50, i32 0, i32 9
  store ptr null, ptr %51, align 8, !tbaa !214
  call void @llvm.lifetime.end.p0(i64 4, ptr %3) #10
  br label %52

52:                                               ; preds = %44, %9
  %53 = load ptr, ptr %2, align 8, !tbaa !103
  %54 = getelementptr inbounds nuw %struct.opj_tcp, ptr %53, i32 0, i32 11
  %55 = load ptr, ptr %54, align 8, !tbaa !219
  %56 = icmp ne ptr %55, null
  br i1 %56, label %57, label %63

57:                                               ; preds = %52
  %58 = load ptr, ptr %2, align 8, !tbaa !103
  %59 = getelementptr inbounds nuw %struct.opj_tcp, ptr %58, i32 0, i32 11
  %60 = load ptr, ptr %59, align 8, !tbaa !219
  call void @opj_free(ptr noundef %60)
  %61 = load ptr, ptr %2, align 8, !tbaa !103
  %62 = getelementptr inbounds nuw %struct.opj_tcp, ptr %61, i32 0, i32 11
  store ptr null, ptr %62, align 8, !tbaa !219
  br label %63

63:                                               ; preds = %57, %52
  %64 = load ptr, ptr %2, align 8, !tbaa !103
  %65 = getelementptr inbounds nuw %struct.opj_tcp, ptr %64, i32 0, i32 15
  %66 = load ptr, ptr %65, align 8, !tbaa !131
  %67 = icmp ne ptr %66, null
  br i1 %67, label %68, label %74

68:                                               ; preds = %63
  %69 = load ptr, ptr %2, align 8, !tbaa !103
  %70 = getelementptr inbounds nuw %struct.opj_tcp, ptr %69, i32 0, i32 15
  %71 = load ptr, ptr %70, align 8, !tbaa !131
  call void @opj_free(ptr noundef %71)
  %72 = load ptr, ptr %2, align 8, !tbaa !103
  %73 = getelementptr inbounds nuw %struct.opj_tcp, ptr %72, i32 0, i32 15
  store ptr null, ptr %73, align 8, !tbaa !131
  br label %74

74:                                               ; preds = %68, %63
  %75 = load ptr, ptr %2, align 8, !tbaa !103
  %76 = getelementptr inbounds nuw %struct.opj_tcp, ptr %75, i32 0, i32 22
  %77 = load ptr, ptr %76, align 8, !tbaa !135
  %78 = icmp ne ptr %77, null
  br i1 %78, label %79, label %85

79:                                               ; preds = %74
  %80 = load ptr, ptr %2, align 8, !tbaa !103
  %81 = getelementptr inbounds nuw %struct.opj_tcp, ptr %80, i32 0, i32 22
  %82 = load ptr, ptr %81, align 8, !tbaa !135
  call void @opj_free(ptr noundef %82)
  %83 = load ptr, ptr %2, align 8, !tbaa !103
  %84 = getelementptr inbounds nuw %struct.opj_tcp, ptr %83, i32 0, i32 22
  store ptr null, ptr %84, align 8, !tbaa !135
  br label %85

85:                                               ; preds = %79, %74
  %86 = load ptr, ptr %2, align 8, !tbaa !103
  %87 = getelementptr inbounds nuw %struct.opj_tcp, ptr %86, i32 0, i32 21
  %88 = load ptr, ptr %87, align 8, !tbaa !136
  %89 = icmp ne ptr %88, null
  br i1 %89, label %90, label %96

90:                                               ; preds = %85
  %91 = load ptr, ptr %2, align 8, !tbaa !103
  %92 = getelementptr inbounds nuw %struct.opj_tcp, ptr %91, i32 0, i32 21
  %93 = load ptr, ptr %92, align 8, !tbaa !136
  call void @opj_free(ptr noundef %93)
  %94 = load ptr, ptr %2, align 8, !tbaa !103
  %95 = getelementptr inbounds nuw %struct.opj_tcp, ptr %94, i32 0, i32 21
  store ptr null, ptr %95, align 8, !tbaa !136
  br label %96

96:                                               ; preds = %90, %85
  %97 = load ptr, ptr %2, align 8, !tbaa !103
  %98 = getelementptr inbounds nuw %struct.opj_tcp, ptr %97, i32 0, i32 26
  %99 = load ptr, ptr %98, align 8, !tbaa !199
  %100 = icmp ne ptr %99, null
  br i1 %100, label %101, label %111

101:                                              ; preds = %96
  %102 = load ptr, ptr %2, align 8, !tbaa !103
  %103 = getelementptr inbounds nuw %struct.opj_tcp, ptr %102, i32 0, i32 26
  %104 = load ptr, ptr %103, align 8, !tbaa !199
  call void @opj_free(ptr noundef %104)
  %105 = load ptr, ptr %2, align 8, !tbaa !103
  %106 = getelementptr inbounds nuw %struct.opj_tcp, ptr %105, i32 0, i32 26
  store ptr null, ptr %106, align 8, !tbaa !199
  %107 = load ptr, ptr %2, align 8, !tbaa !103
  %108 = getelementptr inbounds nuw %struct.opj_tcp, ptr %107, i32 0, i32 28
  store i32 0, ptr %108, align 4, !tbaa !198
  %109 = load ptr, ptr %2, align 8, !tbaa !103
  %110 = getelementptr inbounds nuw %struct.opj_tcp, ptr %109, i32 0, i32 27
  store i32 0, ptr %110, align 8, !tbaa !197
  br label %111

111:                                              ; preds = %101, %96
  %112 = load ptr, ptr %2, align 8, !tbaa !103
  %113 = getelementptr inbounds nuw %struct.opj_tcp, ptr %112, i32 0, i32 23
  %114 = load ptr, ptr %113, align 8, !tbaa !188
  %115 = icmp ne ptr %114, null
  br i1 %115, label %116, label %149

116:                                              ; preds = %111
  call void @llvm.lifetime.start.p0(i64 8, ptr %4) #10
  %117 = load ptr, ptr %2, align 8, !tbaa !103
  %118 = getelementptr inbounds nuw %struct.opj_tcp, ptr %117, i32 0, i32 23
  %119 = load ptr, ptr %118, align 8, !tbaa !188
  store ptr %119, ptr %4, align 8, !tbaa !185
  call void @llvm.lifetime.start.p0(i64 4, ptr %5) #10
  store i32 0, ptr %5, align 4, !tbaa !3
  br label %120

120:                                              ; preds = %140, %116
  %121 = load i32, ptr %5, align 4, !tbaa !3
  %122 = load ptr, ptr %2, align 8, !tbaa !103
  %123 = getelementptr inbounds nuw %struct.opj_tcp, ptr %122, i32 0, i32 24
  %124 = load i32, ptr %123, align 8, !tbaa !186
  %125 = icmp ult i32 %121, %124
  br i1 %125, label %126, label %143

126:                                              ; preds = %120
  %127 = load ptr, ptr %4, align 8, !tbaa !185
  %128 = getelementptr inbounds nuw %struct.opj_mct_data, ptr %127, i32 0, i32 3
  %129 = load ptr, ptr %128, align 8, !tbaa !189
  %130 = icmp ne ptr %129, null
  br i1 %130, label %131, label %137

131:                                              ; preds = %126
  %132 = load ptr, ptr %4, align 8, !tbaa !185
  %133 = getelementptr inbounds nuw %struct.opj_mct_data, ptr %132, i32 0, i32 3
  %134 = load ptr, ptr %133, align 8, !tbaa !189
  call void @opj_free(ptr noundef %134)
  %135 = load ptr, ptr %4, align 8, !tbaa !185
  %136 = getelementptr inbounds nuw %struct.opj_mct_data, ptr %135, i32 0, i32 3
  store ptr null, ptr %136, align 8, !tbaa !189
  br label %137

137:                                              ; preds = %131, %126
  %138 = load ptr, ptr %4, align 8, !tbaa !185
  %139 = getelementptr inbounds nuw %struct.opj_mct_data, ptr %138, i32 1
  store ptr %139, ptr %4, align 8, !tbaa !185
  br label %140

140:                                              ; preds = %137
  %141 = load i32, ptr %5, align 4, !tbaa !3
  %142 = add i32 %141, 1
  store i32 %142, ptr %5, align 4, !tbaa !3
  br label %120, !llvm.loop !220

143:                                              ; preds = %120
  %144 = load ptr, ptr %2, align 8, !tbaa !103
  %145 = getelementptr inbounds nuw %struct.opj_tcp, ptr %144, i32 0, i32 23
  %146 = load ptr, ptr %145, align 8, !tbaa !188
  call void @opj_free(ptr noundef %146)
  %147 = load ptr, ptr %2, align 8, !tbaa !103
  %148 = getelementptr inbounds nuw %struct.opj_tcp, ptr %147, i32 0, i32 23
  store ptr null, ptr %148, align 8, !tbaa !188
  call void @llvm.lifetime.end.p0(i64 4, ptr %5) #10
  call void @llvm.lifetime.end.p0(i64 8, ptr %4) #10
  br label %149

149:                                              ; preds = %143, %111
  %150 = load ptr, ptr %2, align 8, !tbaa !103
  %151 = getelementptr inbounds nuw %struct.opj_tcp, ptr %150, i32 0, i32 20
  %152 = load ptr, ptr %151, align 8, !tbaa !137
  %153 = icmp ne ptr %152, null
  br i1 %153, label %154, label %160

154:                                              ; preds = %149
  %155 = load ptr, ptr %2, align 8, !tbaa !103
  %156 = getelementptr inbounds nuw %struct.opj_tcp, ptr %155, i32 0, i32 20
  %157 = load ptr, ptr %156, align 8, !tbaa !137
  call void @opj_free(ptr noundef %157)
  %158 = load ptr, ptr %2, align 8, !tbaa !103
  %159 = getelementptr inbounds nuw %struct.opj_tcp, ptr %158, i32 0, i32 20
  store ptr null, ptr %159, align 8, !tbaa !137
  br label %160

160:                                              ; preds = %154, %149
  %161 = load ptr, ptr %2, align 8, !tbaa !103
  call void @opj_j2k_tcp_data_destroy(ptr noundef %161)
  br label %162

162:                                              ; preds = %160, %8
  ret void
}