; Function Attrs: nounwind uwtable
define internal fastcc void @opj_j2k_tcp_destroy(ptr noundef %0) unnamed_addr #3 {
  %2 = icmp eq ptr %0, null
  br i1 %2, label %opj_j2k_tcp_data_destroy.exit, label %3

3:                                                ; preds = %1
  %4 = getelementptr inbounds nuw i8, ptr %0, i64 5168
  %5 = load ptr, ptr %4, align 8, !tbaa !191
  %.not = icmp eq ptr %5, null
  br i1 %.not, label %18, label %.preheader64

.preheader64:                                     ; preds = %3
  %6 = getelementptr inbounds nuw i8, ptr %0, i64 5160
  %7 = load i32, ptr %6, align 8, !tbaa !192
  %.not70 = icmp eq i32 %7, 0
  br i1 %.not70, label %._crit_edge, label %.lr.ph

.lr.ph:                                           ; preds = %.preheader64, %13
  %8 = phi i32 [ %14, %13 ], [ %7, %.preheader64 ]
  %indvars.iv = phi i64 [ %indvars.iv.next, %13 ], [ 0, %.preheader64 ]
  %9 = load ptr, ptr %4, align 8, !tbaa !191
  %10 = getelementptr inbounds nuw %struct.opj_ppx_struct, ptr %9, i64 %indvars.iv
  %11 = load ptr, ptr %10, align 8, !tbaa !40
  %.not63 = icmp eq ptr %11, null
  br i1 %.not63, label %13, label %12

12:                                               ; preds = %.lr.ph
  tail call void @opj_free(ptr noundef nonnull %11) #21
  %.pre = load i32, ptr %6, align 8, !tbaa !192
  br label %13

13:                                               ; preds = %.lr.ph, %12
  %14 = phi i32 [ %8, %.lr.ph ], [ %.pre, %12 ]
  %indvars.iv.next = add nuw nsw i64 %indvars.iv, 1
  %15 = zext i32 %14 to i64
  %16 = icmp samesign ult i64 %indvars.iv.next, %15
  br i1 %16, label %.lr.ph, label %._crit_edge.loopexit, !llvm.loop !193

._crit_edge.loopexit:                             ; preds = %13
  %.pre73 = load ptr, ptr %4, align 8, !tbaa !191
  br label %._crit_edge

._crit_edge:                                      ; preds = %._crit_edge.loopexit, %.preheader64
  %17 = phi ptr [ %.pre73, %._crit_edge.loopexit ], [ %5, %.preheader64 ]
  store i32 0, ptr %6, align 8, !tbaa !192
  tail call void @opj_free(ptr noundef %17) #21
  store ptr null, ptr %4, align 8, !tbaa !191
  br label %18

18:                                               ; preds = %._crit_edge, %3
  %19 = getelementptr inbounds nuw i8, ptr %0, i64 5184
  %20 = load ptr, ptr %19, align 8, !tbaa !194
  %.not55 = icmp eq ptr %20, null
  br i1 %.not55, label %22, label %21

21:                                               ; preds = %18
  tail call void @opj_free(ptr noundef nonnull %20) #21
  store ptr null, ptr %19, align 8, !tbaa !194
  br label %22

22:                                               ; preds = %21, %18
  %23 = getelementptr inbounds nuw i8, ptr %0, i64 5600
  %24 = load ptr, ptr %23, align 8, !tbaa !120
  %.not56 = icmp eq ptr %24, null
  br i1 %.not56, label %26, label %25

25:                                               ; preds = %22
  tail call void @opj_free(ptr noundef nonnull %24) #21
  store ptr null, ptr %23, align 8, !tbaa !120
  br label %26

26:                                               ; preds = %25, %22
  %27 = getelementptr inbounds nuw i8, ptr %0, i64 5648
  %28 = load ptr, ptr %27, align 8, !tbaa !122
  %.not57 = icmp eq ptr %28, null
  br i1 %.not57, label %30, label %29

29:                                               ; preds = %26
  tail call void @opj_free(ptr noundef nonnull %28) #21
  store ptr null, ptr %27, align 8, !tbaa !122
  br label %30

30:                                               ; preds = %29, %26
  %31 = getelementptr inbounds nuw i8, ptr %0, i64 5640
  %32 = load ptr, ptr %31, align 8, !tbaa !123
  %.not58 = icmp eq ptr %32, null
  br i1 %.not58, label %34, label %33

33:                                               ; preds = %30
  tail call void @opj_free(ptr noundef nonnull %32) #21
  store ptr null, ptr %31, align 8, !tbaa !123
  br label %34

34:                                               ; preds = %33, %30
  %35 = getelementptr inbounds nuw i8, ptr %0, i64 5672
  %36 = load ptr, ptr %35, align 8, !tbaa !183
  %.not59 = icmp eq ptr %36, null
  br i1 %.not59, label %38, label %37

37:                                               ; preds = %34
  tail call void @opj_free(ptr noundef nonnull %36) #21
  tail call void @llvm.memset.p0.i64(ptr noundef nonnull align 8 dereferenceable(16) %35, i8 0, i64 16, i1 false)
  br label %38

38:                                               ; preds = %37, %34
  %39 = getelementptr inbounds nuw i8, ptr %0, i64 5656
  %40 = load ptr, ptr %39, align 8, !tbaa !172
  %.not60 = icmp eq ptr %40, null
  br i1 %.not60, label %53, label %.preheader

.preheader:                                       ; preds = %38
  %41 = getelementptr inbounds nuw i8, ptr %0, i64 5664
  %42 = load i32, ptr %41, align 8, !tbaa !170
  %.not71 = icmp eq i32 %42, 0
  br i1 %.not71, label %._crit_edge69, label %.lr.ph68

.lr.ph68:                                         ; preds = %.preheader, %47
  %43 = phi i32 [ %48, %47 ], [ %42, %.preheader ]
  %.067 = phi i32 [ %50, %47 ], [ 0, %.preheader ]
  %.04366 = phi ptr [ %49, %47 ], [ %40, %.preheader ]
  %44 = getelementptr inbounds nuw i8, ptr %.04366, i64 16
  %45 = load ptr, ptr %44, align 8, !tbaa !173
  %.not62 = icmp eq ptr %45, null
  br i1 %.not62, label %47, label %46

46:                                               ; preds = %.lr.ph68
  tail call void @opj_free(ptr noundef nonnull %45) #21
  store ptr null, ptr %44, align 8, !tbaa !173
  %.pre74 = load i32, ptr %41, align 8, !tbaa !170
  br label %47

47:                                               ; preds = %46, %.lr.ph68
  %48 = phi i32 [ %.pre74, %46 ], [ %43, %.lr.ph68 ]
  %49 = getelementptr inbounds nuw i8, ptr %.04366, i64 32
  %50 = add nuw i32 %.067, 1
  %51 = icmp ult i32 %50, %48
  br i1 %51, label %.lr.ph68, label %._crit_edge69.loopexit, !llvm.loop !195

._crit_edge69.loopexit:                           ; preds = %47
  %.pre75 = load ptr, ptr %39, align 8, !tbaa !172
  br label %._crit_edge69

._crit_edge69:                                    ; preds = %._crit_edge69.loopexit, %.preheader
  %52 = phi ptr [ %.pre75, %._crit_edge69.loopexit ], [ %40, %.preheader ]
  tail call void @opj_free(ptr noundef %52) #21
  store ptr null, ptr %39, align 8, !tbaa !172
  br label %53

53:                                               ; preds = %._crit_edge69, %38
  %54 = getelementptr inbounds nuw i8, ptr %0, i64 5632
  %55 = load ptr, ptr %54, align 8, !tbaa !124
  %.not61 = icmp eq ptr %55, null
  br i1 %.not61, label %57, label %56

56:                                               ; preds = %53
  tail call void @opj_free(ptr noundef nonnull %55) #21
  store ptr null, ptr %54, align 8, !tbaa !124
  br label %57

57:                                               ; preds = %56, %53
  %58 = getelementptr inbounds nuw i8, ptr %0, i64 5616
  %59 = load ptr, ptr %58, align 8, !tbaa !196
  %.not.i = icmp eq ptr %59, null
  br i1 %.not.i, label %opj_j2k_tcp_data_destroy.exit, label %60

60:                                               ; preds = %57
  tail call void @opj_free(ptr noundef nonnull %59) #21
  store ptr null, ptr %58, align 8, !tbaa !196
  %61 = getelementptr inbounds nuw i8, ptr %0, i64 5624
  store i32 0, ptr %61, align 8, !tbaa !197
  br label %opj_j2k_tcp_data_destroy.exit

opj_j2k_tcp_data_destroy.exit:                    ; preds = %60, %57, %1
  ret void
}